; Function Attrs: mustprogress nounwind uwtable
define hidden noundef i32 @_ZNK6G1NUMA16index_of_addressEPP12HeapWordImpl(ptr nocapture noundef nonnull readonly align 8 dereferenceable(56) %0, ptr noundef %1) local_unnamed_addr #1 align 2 {
  %3 = tail call noundef i32 @_ZN2os29numa_get_group_id_for_addressEPKv(ptr noundef %1) #12
  %4 = icmp eq i32 %3, -1
  br i1 %4, label %10, label %5

5:                                                ; preds = %2
  %6 = load ptr, ptr %0, align 8
  %7 = zext i32 %3 to i64
  %8 = getelementptr inbounds i32, ptr %6, i64 %7
  %9 = load i32, ptr %8, align 4
  br label %10

10:                                               ; preds = %2, %5
  %.0 = phi i32 [ %9, %5 ], [ -1, %2 ]
  ret i32 %.0
}